target datalayout = "e-m:e-p270:32:32-p271:32:32-p272:64:64-i64:64-i128:128-f80:128-n8:16:32:64-S128"
target triple = "x86_64-pc-linux-gnu"

%struct._stat_tap_table = type { ptr, ptr, i32, i32, ptr }
%struct._stat_tap_table_item_type = type { i32, %union.anon, %union.anon.0 }
%union.anon = type { ptr }
%union.anon.0 = type { ptr }

; Function Attrs: nounwind null_pointer_is_valid sspstrong uwtable
define ptr @stat_tap_get_field_data(ptr noundef %0, i32 noundef %1, i32 noundef %2) #3 {
  %4 = alloca ptr, align 8
  %5 = alloca i32, align 4
  %6 = alloca i32, align 4
  %7 = alloca ptr, align 8
  store ptr %0, ptr %4, align 8
  store i32 %1, ptr %5, align 4
  store i32 %2, ptr %6, align 4
  call void @llvm.lifetime.start.p0(i64 8, ptr %7) #13
  br label %8

8:                                                ; preds = %3
  br label %9

9:                                                ; preds = %8
  br label %10

10:                                               ; preds = %9
  %11 = load ptr, ptr %4, align 8
  %12 = getelementptr inbounds nuw %struct._stat_tap_table, ptr %11, i32 0, i32 4
  %13 = load ptr, ptr %12, align 8
  %14 = load i32, ptr %5, align 4
  %15 = zext i32 %14 to i64
  %16 = getelementptr ptr, ptr %13, i64 %15
  %17 = load ptr, ptr %16, align 8
  store ptr %17, ptr %7, align 8
  br label %18

18:                                               ; preds = %10
  br label %19

19:                                               ; preds = %18
  br label %20

20:                                               ; preds = %19
  %21 = load ptr, ptr %7, align 8
  %22 = load i32, ptr %6, align 4
  %23 = zext i32 %22 to i64
  %24 = getelementptr %struct._stat_tap_table_item_type, ptr %21, i64 %23
  call void @llvm.lifetime.end.p0(i64 8, ptr %7) #13
  ret ptr %24
}