; Function Attrs: mustprogress nofree norecurse nosync nounwind null_pointer_is_valid sspstrong willreturn memory(read, inaccessiblemem: none) uwtable
define ptr @stat_tap_get_field_data(ptr noundef readonly captures(none) %0, i32 noundef %1, i32 noundef %2) local_unnamed_addr #7 {
  %4 = getelementptr inbounds nuw i8, ptr %0, i64 24
  %5 = load ptr, ptr %4, align 8
  %6 = zext i32 %1 to i64
  %7 = getelementptr ptr, ptr %5, i64 %6
  %8 = load ptr, ptr %7, align 8
  %9 = zext i32 %2 to i64
  %10 = getelementptr %struct._stat_tap_table_item_type, ptr %8, i64 %9
  ret ptr %10
}